target datalayout = "e-m:e-p270:32:32-p271:32:32-p272:64:64-i64:64-i128:128-f80:128-n8:16:32:64-S128"
target triple = "x86_64-pc-linux-gnu"

%struct.mbedtls_mpi = type { i32, i64, ptr }

; Function Attrs: mustprogress uwtable
define internal void @_ZL19mbedtls_mpi_zeroizePmm(ptr noundef %0, i64 noundef %1) #1 {
  %3 = alloca ptr, align 8
  %4 = alloca i64, align 8
  store ptr %0, ptr %3, align 8, !tbaa !15
  store i64 %1, ptr %4, align 8, !tbaa !16
  %5 = load ptr, ptr %3, align 8, !tbaa !15
  %6 = load i64, ptr %4, align 8, !tbaa !16
  %7 = mul i64 8, %6
  call void @mbedtls_platform_zeroize(ptr noundef %5, i64 noundef %7)
  ret void
}

; Function Attrs: mustprogress uwtable
define hidden i32 @mbedtls_mpi_grow(ptr noundef %0, i64 noundef %1) #1 {
  %3 = alloca i32, align 4
  %4 = alloca ptr, align 8
  %5 = alloca i64, align 8
  %6 = alloca ptr, align 8
  %7 = alloca i32, align 4
  store ptr %0, ptr %4, align 8, !tbaa !3
  store i64 %1, ptr %5, align 8, !tbaa !16
  call void @llvm.lifetime.start.p0(i64 8, ptr %6) #10
  br label %8

8:                                                ; preds = %2
  br label %9

9:                                                ; preds = %8
  br label %10

10:                                               ; preds = %9
  %11 = load i64, ptr %5, align 8, !tbaa !16
  %12 = icmp ugt i64 %11, 10000
  br i1 %12, label %13, label %14

13:                                               ; preds = %10
  store i32 -16, ptr %3, align 4
  store i32 1, ptr %7, align 4
  br label %56

14:                                               ; preds = %10
  %15 = load ptr, ptr %4, align 8, !tbaa !3
  %16 = getelementptr inbounds nuw %struct.mbedtls_mpi, ptr %15, i32 0, i32 1
  %17 = load i64, ptr %16, align 8, !tbaa !13
  %18 = load i64, ptr %5, align 8, !tbaa !16
  %19 = icmp ult i64 %17, %18
  br i1 %19, label %20, label %55

20:                                               ; preds = %14
  %21 = load i64, ptr %5, align 8, !tbaa !16
  %22 = call noalias ptr @calloc(i64 noundef %21, i64 noundef 8) #11
  store ptr %22, ptr %6, align 8, !tbaa !15
  %23 = icmp eq ptr %22, null
  br i1 %23, label %24, label %25

24:                                               ; preds = %20
  store i32 -16, ptr %3, align 4
  store i32 1, ptr %7, align 4
  br label %56

25:                                               ; preds = %20
  %26 = load ptr, ptr %4, align 8, !tbaa !3
  %27 = getelementptr inbounds nuw %struct.mbedtls_mpi, ptr %26, i32 0, i32 2
  %28 = load ptr, ptr %27, align 8, !tbaa !14
  %29 = icmp ne ptr %28, null
  br i1 %29, label %30, label %48

30:                                               ; preds = %25
  %31 = load ptr, ptr %6, align 8, !tbaa !15
  %32 = load ptr, ptr %4, align 8, !tbaa !3
  %33 = getelementptr inbounds nuw %struct.mbedtls_mpi, ptr %32, i32 0, i32 2
  %34 = load ptr, ptr %33, align 8, !tbaa !14
  %35 = load ptr, ptr %4, align 8, !tbaa !3
  %36 = getelementptr inbounds nuw %struct.mbedtls_mpi, ptr %35, i32 0, i32 1
  %37 = load i64, ptr %36, align 8, !tbaa !13
  %38 = mul i64 %37, 8
  call void @llvm.memcpy.p0.p0.i64(ptr align 8 %31, ptr align 8 %34, i64 %38, i1 false)
  %39 = load ptr, ptr %4, align 8, !tbaa !3
  %40 = getelementptr inbounds nuw %struct.mbedtls_mpi, ptr %39, i32 0, i32 2
  %41 = load ptr, ptr %40, align 8, !tbaa !14
  %42 = load ptr, ptr %4, align 8, !tbaa !3
  %43 = getelementptr inbounds nuw %struct.mbedtls_mpi, ptr %42, i32 0, i32 1
  %44 = load i64, ptr %43, align 8, !tbaa !13
  call void @_ZL19mbedtls_mpi_zeroizePmm(ptr noundef %41, i64 noundef %44)
  %45 = load ptr, ptr %4, align 8, !tbaa !3
  %46 = getelementptr inbounds nuw %struct.mbedtls_mpi, ptr %45, i32 0, i32 2
  %47 = load ptr, ptr %46, align 8, !tbaa !14
  call void @free(ptr noundef %47) #10
  br label %48

48:                                               ; preds = %30, %25
  %49 = load i64, ptr %5, align 8, !tbaa !16
  %50 = load ptr, ptr %4, align 8, !tbaa !3
  %51 = getelementptr inbounds nuw %struct.mbedtls_mpi, ptr %50, i32 0, i32 1
  store i64 %49, ptr %51, align 8, !tbaa !13
  %52 = load ptr, ptr %6, align 8, !tbaa !15
  %53 = load ptr, ptr %4, align 8, !tbaa !3
  %54 = getelementptr inbounds nuw %struct.mbedtls_mpi, ptr %53, i32 0, i32 2
  store ptr %52, ptr %54, align 8, !tbaa !14
  br label %55

55:                                               ; preds = %48, %14
  store i32 0, ptr %3, align 4
  store i32 1, ptr %7, align 4
  br label %56

56:                                               ; preds = %55, %24, %13
  call void @llvm.lifetime.end.p0(i64 8, ptr %6) #10
  %57 = load i32, ptr %3, align 4
  ret i32 %57
}

; Function Attrs: mustprogress uwtable
define hidden i32 @mbedtls_mpi_add_abs(ptr noundef %0, ptr noundef %1, ptr noundef %2) #1 {
  %4 = alloca ptr, align 8
  %5 = alloca ptr, align 8
  %6 = alloca ptr, align 8
  %7 = alloca i32, align 4
  %8 = alloca i64, align 8
  %9 = alloca i64, align 8
  %10 = alloca ptr, align 8
  %11 = alloca ptr, align 8
  %12 = alloca i64, align 8
  %13 = alloca i64, align 8
  %14 = alloca ptr, align 8
  store ptr %0, ptr %4, align 8, !tbaa !3
  store ptr %1, ptr %5, align 8, !tbaa !3
  store ptr %2, ptr %6, align 8, !tbaa !3
  call void @llvm.lifetime.start.p0(i64 4, ptr %7) #10
  store i32 -110, ptr %7, align 4, !tbaa !19
  call void @llvm.lifetime.start.p0(i64 8, ptr %8) #10
  call void @llvm.lifetime.start.p0(i64 8, ptr %9) #10
  call void @llvm.lifetime.start.p0(i64 8, ptr %10) #10
  call void @llvm.lifetime.start.p0(i64 8, ptr %11) #10
  call void @llvm.lifetime.start.p0(i64 8, ptr %12) #10
  call void @llvm.lifetime.start.p0(i64 8, ptr %13) #10
  br label %15

15:                                               ; preds = %3
  br label %16

16:                                               ; preds = %15
  br label %17

17:                                               ; preds = %16
  br label %18

18:                                               ; preds = %17
  br label %19

19:                                               ; preds = %18
  br label %20

20:                                               ; preds = %19
  br label %21

21:                                               ; preds = %20
  br label %22

22:                                               ; preds = %21
  br label %23

23:                                               ; preds = %22
  %24 = load ptr, ptr %4, align 8, !tbaa !3
  %25 = load ptr, ptr %6, align 8, !tbaa !3
  %26 = icmp eq ptr %24, %25
  br i1 %26, label %27, label %31

27:                                               ; preds = %23
  call void @llvm.lifetime.start.p0(i64 8, ptr %14) #10
  %28 = load ptr, ptr %5, align 8, !tbaa !3
  store ptr %28, ptr %14, align 8, !tbaa !3
  %29 = load ptr, ptr %4, align 8, !tbaa !3
  store ptr %29, ptr %5, align 8, !tbaa !3
  %30 = load ptr, ptr %14, align 8, !tbaa !3
  store ptr %30, ptr %6, align 8, !tbaa !3
  call void @llvm.lifetime.end.p0(i64 8, ptr %14) #10
  br label %31

31:                                               ; preds = %27, %23
  %32 = load ptr, ptr %4, align 8, !tbaa !3
  %33 = load ptr, ptr %5, align 8, !tbaa !3
  %34 = icmp ne ptr %32, %33
  br i1 %34, label %35, label %45

35:                                               ; preds = %31
  br label %36

36:                                               ; preds = %35
  %37 = load ptr, ptr %4, align 8, !tbaa !3
  %38 = load ptr, ptr %5, align 8, !tbaa !3
  %39 = call i32 @mbedtls_mpi_copy(ptr noundef %37, ptr noundef %38)
  store i32 %39, ptr %7, align 4, !tbaa !19
  %40 = icmp ne i32 %39, 0
  br i1 %40, label %41, label %42

41:                                               ; preds = %36
  br label %159

42:                                               ; preds = %36
  br label %43

43:                                               ; preds = %42
  br label %44

44:                                               ; preds = %43
  br label %45

45:                                               ; preds = %44, %31
  %46 = load ptr, ptr %4, align 8, !tbaa !3
  %47 = getelementptr inbounds nuw %struct.mbedtls_mpi, ptr %46, i32 0, i32 0
  store i32 1, ptr %47, align 8, !tbaa !8
  %48 = load ptr, ptr %6, align 8, !tbaa !3
  %49 = getelementptr inbounds nuw %struct.mbedtls_mpi, ptr %48, i32 0, i32 1
  %50 = load i64, ptr %49, align 8, !tbaa !13
  store i64 %50, ptr %9, align 8, !tbaa !16
  br label %51

51:                                               ; preds = %65, %45
  %52 = load i64, ptr %9, align 8, !tbaa !16
  %53 = icmp ugt i64 %52, 0
  br i1 %53, label %54, label %68

54:                                               ; preds = %51
  %55 = load ptr, ptr %6, align 8, !tbaa !3
  %56 = getelementptr inbounds nuw %struct.mbedtls_mpi, ptr %55, i32 0, i32 2
  %57 = load ptr, ptr %56, align 8, !tbaa !14
  %58 = load i64, ptr %9, align 8, !tbaa !16
  %59 = sub i64 %58, 1
  %60 = getelementptr inbounds nuw i64, ptr %57, i64 %59
  %61 = load i64, ptr %60, align 8, !tbaa !16
  %62 = icmp ne i64 %61, 0
  br i1 %62, label %63, label %64

63:                                               ; preds = %54
  br label %68

64:                                               ; preds = %54
  br label %65

65:                                               ; preds = %64
  %66 = load i64, ptr %9, align 8, !tbaa !16
  %67 = add i64 %66, -1
  store i64 %67, ptr %9, align 8, !tbaa !16
  br label %51, !llvm.loop !54

68:                                               ; preds = %63, %51
  br label %69

69:                                               ; preds = %68
  %70 = load ptr, ptr %4, align 8, !tbaa !3
  %71 = load i64, ptr %9, align 8, !tbaa !16
  %72 = call i32 @mbedtls_mpi_grow(ptr noundef %70, i64 noundef %71)
  store i32 %72, ptr %7, align 4, !tbaa !19
  %73 = icmp ne i32 %72, 0
  br i1 %73, label %74, label %75

74:                                               ; preds = %69
  br label %159

75:                                               ; preds = %69
  br label %76

76:                                               ; preds = %75
  br label %77

77:                                               ; preds = %76
  %78 = load ptr, ptr %6, align 8, !tbaa !3
  %79 = getelementptr inbounds nuw %struct.mbedtls_mpi, ptr %78, i32 0, i32 2
  %80 = load ptr, ptr %79, align 8, !tbaa !14
  store ptr %80, ptr %10, align 8, !tbaa !15
  %81 = load ptr, ptr %4, align 8, !tbaa !3
  %82 = getelementptr inbounds nuw %struct.mbedtls_mpi, ptr %81, i32 0, i32 2
  %83 = load ptr, ptr %82, align 8, !tbaa !14
  store ptr %83, ptr %11, align 8, !tbaa !15
  store i64 0, ptr %12, align 8, !tbaa !16
  store i64 0, ptr %8, align 8, !tbaa !16
  br label %84

84:                                               ; preds = %111, %77
  %85 = load i64, ptr %8, align 8, !tbaa !16
  %86 = load i64, ptr %9, align 8, !tbaa !16
  %87 = icmp ult i64 %85, %86
  br i1 %87, label %88, label %118

88:                                               ; preds = %84
  %89 = load ptr, ptr %10, align 8, !tbaa !15
  %90 = load i64, ptr %89, align 8, !tbaa !16
  store i64 %90, ptr %13, align 8, !tbaa !16
  %91 = load i64, ptr %12, align 8, !tbaa !16
  %92 = load ptr, ptr %11, align 8, !tbaa !15
  %93 = load i64, ptr %92, align 8, !tbaa !16
  %94 = add i64 %93, %91
  store i64 %94, ptr %92, align 8, !tbaa !16
  %95 = load ptr, ptr %11, align 8, !tbaa !15
  %96 = load i64, ptr %95, align 8, !tbaa !16
  %97 = load i64, ptr %12, align 8, !tbaa !16
  %98 = icmp ult i64 %96, %97
  %99 = zext i1 %98 to i64
  store i64 %99, ptr %12, align 8, !tbaa !16
  %100 = load i64, ptr %13, align 8, !tbaa !16
  %101 = load ptr, ptr %11, align 8, !tbaa !15
  %102 = load i64, ptr %101, align 8, !tbaa !16
  %103 = add i64 %102, %100
  store i64 %103, ptr %101, align 8, !tbaa !16
  %104 = load ptr, ptr %11, align 8, !tbaa !15
  %105 = load i64, ptr %104, align 8, !tbaa !16
  %106 = load i64, ptr %13, align 8, !tbaa !16
  %107 = icmp ult i64 %105, %106
  %108 = zext i1 %107 to i64
  %109 = load i64, ptr %12, align 8, !tbaa !16
  %110 = add i64 %109, %108
  store i64 %110, ptr %12, align 8, !tbaa !16
  br label %111

111:                                              ; preds = %88
  %112 = load i64, ptr %8, align 8, !tbaa !16
  %113 = add i64 %112, 1
  store i64 %113, ptr %8, align 8, !tbaa !16
  %114 = load ptr, ptr %10, align 8, !tbaa !15
  %115 = getelementptr inbounds nuw i64, ptr %114, i32 1
  store ptr %115, ptr %10, align 8, !tbaa !15
  %116 = load ptr, ptr %11, align 8, !tbaa !15
  %117 = getelementptr inbounds nuw i64, ptr %116, i32 1
  store ptr %117, ptr %11, align 8, !tbaa !15
  br label %84, !llvm.loop !55

118:                                              ; preds = %84
  br label %119

119:                                              ; preds = %144, %118
  %120 = load i64, ptr %12, align 8, !tbaa !16
  %121 = icmp ne i64 %120, 0
  br i1 %121, label %122, label %158

122:                                              ; preds = %119
  %123 = load i64, ptr %8, align 8, !tbaa !16
  %124 = load ptr, ptr %4, align 8, !tbaa !3
  %125 = getelementptr inbounds nuw %struct.mbedtls_mpi, ptr %124, i32 0, i32 1
  %126 = load i64, ptr %125, align 8, !tbaa !13
  %127 = icmp uge i64 %123, %126
  br i1 %127, label %128, label %144

128:                                              ; preds = %122
  br label %129

129:                                              ; preds = %128
  %130 = load ptr, ptr %4, align 8, !tbaa !3
  %131 = load i64, ptr %8, align 8, !tbaa !16
  %132 = add i64 %131, 1
  %133 = call i32 @mbedtls_mpi_grow(ptr noundef %130, i64 noundef %132)
  store i32 %133, ptr %7, align 4, !tbaa !19
  %134 = icmp ne i32 %133, 0
  br i1 %134, label %135, label %136

135:                                              ; preds = %129
  br label %159

136:                                              ; preds = %129
  br label %137

137:                                              ; preds = %136
  br label %138

138:                                              ; preds = %137
  %139 = load ptr, ptr %4, align 8, !tbaa !3
  %140 = getelementptr inbounds nuw %struct.mbedtls_mpi, ptr %139, i32 0, i32 2
  %141 = load ptr, ptr %140, align 8, !tbaa !14
  %142 = load i64, ptr %8, align 8, !tbaa !16
  %143 = getelementptr inbounds nuw i64, ptr %141, i64 %142
  store ptr %143, ptr %11, align 8, !tbaa !15
  br label %144

144:                                              ; preds = %138, %122
  %145 = load i64, ptr %12, align 8, !tbaa !16
  %146 = load ptr, ptr %11, align 8, !tbaa !15
  %147 = load i64, ptr %146, align 8, !tbaa !16
  %148 = add i64 %147, %145
  store i64 %148, ptr %146, align 8, !tbaa !16
  %149 = load ptr, ptr %11, align 8, !tbaa !15
  %150 = load i64, ptr %149, align 8, !tbaa !16
  %151 = load i64, ptr %12, align 8, !tbaa !16
  %152 = icmp ult i64 %150, %151
  %153 = zext i1 %152 to i64
  store i64 %153, ptr %12, align 8, !tbaa !16
  %154 = load i64, ptr %8, align 8, !tbaa !16
  %155 = add i64 %154, 1
  store i64 %155, ptr %8, align 8, !tbaa !16
  %156 = load ptr, ptr %11, align 8, !tbaa !15
  %157 = getelementptr inbounds nuw i64, ptr %156, i32 1
  store ptr %157, ptr %11, align 8, !tbaa !15
  br label %119, !llvm.loop !56

158:                                              ; preds = %119
  br label %159

159:                                              ; preds = %158, %135, %74, %41
  %160 = load i32, ptr %7, align 4, !tbaa !19
  call void @llvm.lifetime.end.p0(i64 8, ptr %13) #10
  call void @llvm.lifetime.end.p0(i64 8, ptr %12) #10
  call void @llvm.lifetime.end.p0(i64 8, ptr %11) #10
  call void @llvm.lifetime.end.p0(i64 8, ptr %10) #10
  call void @llvm.lifetime.end.p0(i64 8, ptr %9) #10
  call void @llvm.lifetime.end.p0(i64 8, ptr %8) #10
  call void @llvm.lifetime.end.p0(i64 4, ptr %7) #10
  ret i32 %160
}