; Function Attrs: mustprogress uwtable
define hidden range(i32 -16, 1) i32 @mbedtls_mpi_add_abs(ptr noundef captures(address) %0, ptr noundef captures(address) %1, ptr noundef readonly captures(address) %2) local_unnamed_addr #1 {
  %4 = icmp eq ptr %0, %2
  %spec.select = select i1 %4, ptr %1, ptr %2
  %.not81 = icmp eq ptr %1, %0
  %.not = or i1 %.not81, %4
  br i1 %.not, label %7, label %5

5:                                                ; preds = %3
  %6 = tail call i32 @mbedtls_mpi_copy(ptr noundef %0, ptr noundef %1)
  %.not66 = icmp eq i32 %6, 0
  br i1 %.not66, label %7, label %mbedtls_mpi_grow.exit

7:                                                ; preds = %5, %3
  store i32 1, ptr %0, align 8, !tbaa !3
  %8 = getelementptr inbounds nuw i8, ptr %spec.select, i64 8
  %9 = load i64, ptr %8, align 8, !tbaa !12
  %.not6784 = icmp eq i64 %9, 0
  br i1 %.not6784, label %mbedtls_mpi_grow.exit, label %.lr.ph

.lr.ph:                                           ; preds = %7
  %10 = getelementptr inbounds nuw i8, ptr %spec.select, i64 16
  %11 = load ptr, ptr %10, align 8, !tbaa !11
  %invariant.gep = getelementptr i8, ptr %11, i64 -8
  br label %12

12:                                               ; preds = %.lr.ph, %14
  %.05285 = phi i64 [ %9, %.lr.ph ], [ %15, %14 ]
  %gep = getelementptr i64, ptr %invariant.gep, i64 %.05285
  %13 = load i64, ptr %gep, align 8, !tbaa !13
  %.not68 = icmp eq i64 %13, 0
  br i1 %.not68, label %14, label %16

14:                                               ; preds = %12
  %15 = add i64 %.05285, -1
  %.not67 = icmp eq i64 %15, 0
  br i1 %.not67, label %mbedtls_mpi_grow.exit, label %12, !llvm.loop !46

16:                                               ; preds = %12
  %17 = icmp ugt i64 %.05285, 10000
  br i1 %17, label %mbedtls_mpi_grow.exit, label %.thread

.thread:                                          ; preds = %16
  %18 = getelementptr inbounds nuw i8, ptr %0, i64 8
  %19 = load i64, ptr %18, align 8, !tbaa !12
  %20 = icmp ult i64 %19, %.05285
  br i1 %20, label %21, label %30

21:                                               ; preds = %.thread
  %22 = tail call noalias ptr @calloc(i64 noundef %.05285, i64 noundef 8) #16
  %23 = icmp eq ptr %22, null
  br i1 %23, label %mbedtls_mpi_grow.exit, label %24

24:                                               ; preds = %21
  %25 = getelementptr inbounds nuw i8, ptr %0, i64 16
  %26 = load ptr, ptr %25, align 8, !tbaa !11
  %.not.i = icmp eq ptr %26, null
  br i1 %.not.i, label %.thread113, label %27

27:                                               ; preds = %24
  %28 = shl nuw nsw i64 %19, 3
  tail call void @llvm.memcpy.p0.p0.i64(ptr nonnull align 8 %22, ptr nonnull align 8 %26, i64 %28, i1 false)
  tail call void @mbedtls_platform_zeroize(ptr noundef nonnull %26, i64 noundef %28)
  %29 = load ptr, ptr %25, align 8, !tbaa !11
  tail call void @free(ptr noundef %29) #15
  br label %.thread113

.thread113:                                       ; preds = %24, %27
  store i64 %.05285, ptr %18, align 8, !tbaa !12
  store ptr %22, ptr %25, align 8, !tbaa !11
  br label %.lr.ph90.preheader

30:                                               ; preds = %.thread
  %.phi.trans.insert = getelementptr inbounds nuw i8, ptr %0, i64 16
  %.pre = load ptr, ptr %.phi.trans.insert, align 8, !tbaa !11
  br label %.lr.ph90.preheader

.lr.ph90.preheader:                               ; preds = %30, %.thread113
  %31 = phi ptr [ %22, %.thread113 ], [ %.pre, %30 ]
  %32 = getelementptr inbounds nuw i8, ptr %0, i64 16
  %33 = getelementptr inbounds nuw i8, ptr %spec.select, i64 16
  %34 = load ptr, ptr %33, align 8, !tbaa !11
  br label %.lr.ph90

.preheader:                                       ; preds = %.lr.ph90
  %.not7094 = icmp eq i64 %43, 0
  br i1 %.not7094, label %mbedtls_mpi_grow.exit, label %.lr.ph98

.lr.ph90:                                         ; preds = %.lr.ph90.preheader, %.lr.ph90
  %.04889 = phi i64 [ %43, %.lr.ph90 ], [ 0, %.lr.ph90.preheader ]
  %.04988 = phi ptr [ %46, %.lr.ph90 ], [ %31, %.lr.ph90.preheader ]
  %.05187 = phi ptr [ %45, %.lr.ph90 ], [ %34, %.lr.ph90.preheader ]
  %.05386 = phi i64 [ %44, %.lr.ph90 ], [ 0, %.lr.ph90.preheader ]
  %35 = load i64, ptr %.05187, align 8, !tbaa !13
  %36 = load i64, ptr %.04988, align 8, !tbaa !13
  %37 = add i64 %36, %.04889
  %38 = icmp ult i64 %37, %.04889
  %39 = zext i1 %38 to i64
  %40 = add i64 %37, %35
  store i64 %40, ptr %.04988, align 8, !tbaa !13
  %41 = icmp ult i64 %40, %35
  %42 = zext i1 %41 to i64
  %43 = add nuw nsw i64 %42, %39
  %44 = add nuw nsw i64 %.05386, 1
  %45 = getelementptr inbounds nuw i8, ptr %.05187, i64 8
  %46 = getelementptr inbounds nuw i8, ptr %.04988, i64 8
  %exitcond.not = icmp eq i64 %44, %.05285
  br i1 %exitcond.not, label %.preheader, label %.lr.ph90, !llvm.loop !47

.lr.ph98:                                         ; preds = %.preheader, %._crit_edge
  %47 = phi ptr [ %65, %._crit_edge ], [ %31, %.preheader ]
  %48 = phi ptr [ %66, %._crit_edge ], [ %31, %.preheader ]
  %.197 = phi i64 [ 1, %._crit_edge ], [ %43, %.preheader ]
  %.15096 = phi ptr [ %70, %._crit_edge ], [ %46, %.preheader ]
  %.15495 = phi i64 [ %.pre109, %._crit_edge ], [ %.05285, %.preheader ]
  %49 = load i64, ptr %18, align 8, !tbaa !12
  %.not71 = icmp ult i64 %.15495, %49
  %.pre109 = add i64 %.15495, 1
  br i1 %.not71, label %._crit_edge, label %50

50:                                               ; preds = %.lr.ph98
  %51 = icmp ugt i64 %.pre109, 10000
  br i1 %51, label %mbedtls_mpi_grow.exit, label %52

52:                                               ; preds = %50
  %53 = icmp ult i64 %49, %.pre109
  br i1 %53, label %54, label %62

54:                                               ; preds = %52
  %55 = tail call noalias ptr @calloc(i64 noundef %.pre109, i64 noundef 8) #16
  %56 = icmp eq ptr %55, null
  br i1 %56, label %mbedtls_mpi_grow.exit, label %57

57:                                               ; preds = %54
  %.not.i75 = icmp eq ptr %48, null
  br i1 %.not.i75, label %61, label %58

58:                                               ; preds = %57
  %59 = shl nuw nsw i64 %49, 3
  tail call void @llvm.memcpy.p0.p0.i64(ptr nonnull align 8 %55, ptr nonnull align 8 %48, i64 %59, i1 false)
  tail call void @mbedtls_platform_zeroize(ptr noundef nonnull %48, i64 noundef %59)
  %60 = load ptr, ptr %32, align 8, !tbaa !11
  tail call void @free(ptr noundef %60) #15
  br label %61

61:                                               ; preds = %58, %57
  store i64 %.pre109, ptr %18, align 8, !tbaa !12
  store ptr %55, ptr %32, align 8, !tbaa !11
  br label %62

62:                                               ; preds = %61, %52
  %63 = phi ptr [ %55, %61 ], [ %47, %52 ]
  %64 = getelementptr inbounds nuw i64, ptr %63, i64 %.15495
  br label %._crit_edge

._crit_edge:                                      ; preds = %.lr.ph98, %62
  %65 = phi ptr [ %63, %62 ], [ %47, %.lr.ph98 ]
  %66 = phi ptr [ %63, %62 ], [ %48, %.lr.ph98 ]
  %.2 = phi ptr [ %64, %62 ], [ %.15096, %.lr.ph98 ]
  %67 = load i64, ptr %.2, align 8, !tbaa !13
  %68 = add i64 %67, %.197
  store i64 %68, ptr %.2, align 8, !tbaa !13
  %69 = icmp ult i64 %68, %.197
  %70 = getelementptr inbounds nuw i8, ptr %.2, i64 8
  br i1 %69, label %.lr.ph98, label %mbedtls_mpi_grow.exit, !llvm.loop !48

mbedtls_mpi_grow.exit:                            ; preds = %14, %._crit_edge, %50, %54, %7, %.preheader, %21, %16, %5
  %.055 = phi i32 [ %6, %5 ], [ -16, %16 ], [ -16, %21 ], [ 0, %.preheader ], [ 0, %7 ], [ 0, %._crit_edge ], [ -16, %50 ], [ -16, %54 ], [ 0, %14 ]
  ret i32 %.055
}